target datalayout = "e-m:e-p270:32:32-p271:32:32-p272:64:64-i64:64-i128:128-f80:128-n8:16:32:64-S128"
target triple = "x86_64-pc-linux-gnu"

%"struct.(anonymous namespace)::EncapsulateInvertedLists" = type { %"struct.faiss::InvertedLists.base", ptr }
%"struct.faiss::InvertedLists.base" = type <{ ptr, i64, i64, i8 }>
%"struct.faiss::InvertedLists" = type <{ ptr, i64, i64, i8, [7 x i8] }>

; Function Attrs: mustprogress nounwind uwtable
define internal noundef ptr @_ZN12_GLOBAL__N_124EncapsulateInvertedLists6memdupEPKvm(ptr noundef %0, i64 noundef %1) #0 align 2 {
  %3 = alloca ptr, align 8
  %4 = alloca ptr, align 8
  %5 = alloca i64, align 8
  store ptr %0, ptr %4, align 8, !tbaa !40
  store i64 %1, ptr %5, align 8, !tbaa !18
  %6 = load i64, ptr %5, align 8, !tbaa !18
  %7 = icmp eq i64 %6, 0
  br i1 %7, label %8, label %9

8:                                                ; preds = %2
  store ptr null, ptr %3, align 8
  br label %14

9:                                                ; preds = %2
  %10 = load i64, ptr %5, align 8, !tbaa !18
  %11 = call noalias ptr @malloc(i64 noundef %10) #23
  %12 = load ptr, ptr %4, align 8, !tbaa !40
  %13 = load i64, ptr %5, align 8, !tbaa !18
  call void @llvm.memcpy.p0.p0.i64(ptr align 1 %11, ptr align 1 %12, i64 %13, i1 false)
  store ptr %11, ptr %3, align 8
  br label %14

14:                                               ; preds = %9, %8
  %15 = load ptr, ptr %3, align 8
  ret ptr %15
}

; Function Attrs: mustprogress uwtable
define internal noundef ptr @_ZNK12_GLOBAL__N_124EncapsulateInvertedLists15get_single_codeEmm(ptr noundef nonnull align 8 dereferenceable(40) %0, i64 noundef %1, i64 noundef %2) unnamed_addr #2 align 2 {
  %4 = alloca ptr, align 8
  %5 = alloca i64, align 8
  %6 = alloca i64, align 8
  store ptr %0, ptr %4, align 8, !tbaa !122
  store i64 %1, ptr %5, align 8, !tbaa !18
  store i64 %2, ptr %6, align 8, !tbaa !18
  %7 = load ptr, ptr %4, align 8
  %8 = getelementptr inbounds nuw %"struct.(anonymous namespace)::EncapsulateInvertedLists", ptr %7, i32 0, i32 1
  %9 = load ptr, ptr %8, align 8, !tbaa !108
  %10 = load i64, ptr %5, align 8, !tbaa !18
  %11 = load i64, ptr %6, align 8, !tbaa !18
  %12 = load ptr, ptr %9, align 8, !tbaa !43
  %13 = getelementptr inbounds ptr, ptr %12, i64 8
  %14 = load ptr, ptr %13, align 8
  %15 = call noundef ptr %14(ptr noundef nonnull align 8 dereferenceable(25) %9, i64 noundef %10, i64 noundef %11)
  %16 = getelementptr inbounds nuw %"struct.faiss::InvertedLists", ptr %7, i32 0, i32 2
  %17 = load i64, ptr %16, align 8, !tbaa !126
  %18 = call noundef ptr @_ZN12_GLOBAL__N_124EncapsulateInvertedLists6memdupEPKvm(ptr noundef %15, i64 noundef %17)
  ret ptr %18
}