; Function Attrs: mustprogress uwtable
define internal noundef ptr @_ZNK12_GLOBAL__N_124EncapsulateInvertedLists15get_single_codeEmm(ptr noundef nonnull readonly align 8 captures(none) dereferenceable(40) %0, i64 noundef %1, i64 noundef %2) unnamed_addr #2 align 2 {
  %4 = getelementptr inbounds nuw i8, ptr %0, i64 32
  %5 = load ptr, ptr %4, align 8, !tbaa !79
  %6 = load ptr, ptr %5, align 8, !tbaa !5
  %7 = getelementptr inbounds nuw i8, ptr %6, i64 64
  %8 = load ptr, ptr %7, align 8
  %9 = tail call noundef ptr %8(ptr noundef nonnull align 8 dereferenceable(25) %5, i64 noundef %1, i64 noundef %2)
  %10 = getelementptr inbounds nuw i8, ptr %0, i64 16
  %11 = load i64, ptr %10, align 8, !tbaa !78
  %12 = icmp eq i64 %11, 0
  br i1 %12, label %_ZN12_GLOBAL__N_124EncapsulateInvertedLists6memdupEPKvm.exit, label %13

13:                                               ; preds = %3
  %14 = tail call noalias ptr @malloc(i64 noundef %11) #25
  tail call void @llvm.memcpy.p0.p0.i64(ptr align 1 %14, ptr readonly align 1 %9, i64 %11, i1 false)
  br label %_ZN12_GLOBAL__N_124EncapsulateInvertedLists6memdupEPKvm.exit

_ZN12_GLOBAL__N_124EncapsulateInvertedLists6memdupEPKvm.exit: ; preds = %3, %13
  %.0.i = phi ptr [ %14, %13 ], [ null, %3 ]
  ret ptr %.0.i
}